; Function Attrs: nounwind uwtable
define i32 @pmix_bfrops_base_pack_dbuf(ptr noundef %0, ptr noundef %1, ptr noundef %2, i32 noundef %3, i16 noundef zeroext %4) local_unnamed_addr #0 {
  %6 = getelementptr inbounds nuw i8, ptr %0, i64 128
  %7 = getelementptr inbounds nuw i8, ptr %0, i64 152
  %8 = icmp sgt i32 %3, 0
  br i1 %8, label %.lr.ph.preheader, label %.thread

.lr.ph.preheader:                                 ; preds = %5
  %wide.trip.count = zext nneg i32 %3 to i64
  br label %.lr.ph

.lr.ph:                                           ; preds = %.lr.ph.preheader, %35
  %indvars.iv = phi i64 [ 0, %.lr.ph.preheader ], [ %indvars.iv.next, %35 ]
  %9 = load i32, ptr %6, align 8, !tbaa !15
  %.not.i = icmp sgt i32 %9, 4
  br i1 %.not.i, label %pmix_pointer_array_get_item.exit, label %.thread, !prof !18

pmix_pointer_array_get_item.exit:                 ; preds = %.lr.ph
  %10 = load ptr, ptr %7, align 8, !tbaa !19
  %11 = getelementptr inbounds nuw i8, ptr %10, i64 32
  %12 = load ptr, ptr %11, align 8, !tbaa !20
  %13 = icmp eq ptr %12, null
  br i1 %13, label %.thread, label %14

14:                                               ; preds = %pmix_pointer_array_get_item.exit
  %15 = getelementptr inbounds nuw i8, ptr %12, i64 136
  %16 = load ptr, ptr %15, align 8, !tbaa !21
  %17 = getelementptr inbounds nuw %struct.pmix_data_buffer, ptr %2, i64 %indvars.iv, i32 4
  %18 = tail call i32 %16(ptr noundef nonnull %0, ptr noundef %1, ptr noundef nonnull %17, i32 noundef 1, i16 noundef zeroext 4) #8
  %.not = icmp eq i32 %18, 0
  br i1 %.not, label %19, label %.thread

19:                                               ; preds = %14
  %20 = getelementptr inbounds nuw %struct.pmix_data_buffer, ptr %2, i64 %indvars.iv
  %21 = getelementptr inbounds nuw i8, ptr %20, i64 32
  %22 = load i64, ptr %21, align 8, !tbaa !144
  %.not30 = icmp eq i64 %22, 0
  br i1 %.not30, label %35, label %23

23:                                               ; preds = %19
  %24 = load i32, ptr %6, align 8, !tbaa !15
  %.not.i32 = icmp sgt i32 %24, 2
  br i1 %.not.i32, label %pmix_pointer_array_get_item.exit34, label %.thread, !prof !18

pmix_pointer_array_get_item.exit34:               ; preds = %23
  %25 = load ptr, ptr %7, align 8, !tbaa !19
  %26 = getelementptr inbounds nuw i8, ptr %25, i64 16
  %27 = load ptr, ptr %26, align 8, !tbaa !20
  %28 = icmp eq ptr %27, null
  br i1 %28, label %.thread, label %29

29:                                               ; preds = %pmix_pointer_array_get_item.exit34
  %30 = getelementptr inbounds nuw i8, ptr %27, i64 136
  %31 = load ptr, ptr %30, align 8, !tbaa !21
  %32 = load ptr, ptr %20, align 8, !tbaa !146
  %33 = trunc i64 %22 to i32
  %34 = tail call i32 %31(ptr noundef nonnull %0, ptr noundef %1, ptr noundef %32, i32 noundef %33, i16 noundef zeroext 2) #8
  %.not31 = icmp eq i32 %34, 0
  br i1 %.not31, label %35, label %.thread

35:                                               ; preds = %19, %29
  %indvars.iv.next = add nuw nsw i64 %indvars.iv, 1
  %exitcond.not = icmp eq i64 %indvars.iv.next, %wide.trip.count
  br i1 %exitcond.not, label %.thread, label %.lr.ph, !llvm.loop !147

.thread:                                          ; preds = %14, %29, %35, %pmix_pointer_array_get_item.exit, %.lr.ph, %pmix_pointer_array_get_item.exit34, %23, %5
  %.0 = phi i32 [ 0, %5 ], [ -16, %23 ], [ -16, %pmix_pointer_array_get_item.exit34 ], [ -16, %.lr.ph ], [ -16, %pmix_pointer_array_get_item.exit ], [ 0, %35 ], [ %34, %29 ], [ %18, %14 ]
  ret i32 %.0
}